; Function Attrs: mustprogress uwtable
define hidden noundef zeroext i1 @_ZN18OpenImageIO_v2_6_08JpgInput5closeEv(ptr noundef nonnull align 8 dereferenceable(1296) %this) unnamed_addr #6 align 2 {
entry:
  %call = tail call noundef zeroext i1 @_ZNK18OpenImageIO_v2_6_010ImageInput14ioproxy_openedEv(ptr noundef nonnull align 8 dereferenceable(184) %this)
  br i1 %call, label %if.then, label %if.end4

if.then:                                          ; preds = %entry
  %m_decomp_create = getelementptr inbounds i8, ptr %this, i64 223
  %0 = load i8, ptr %m_decomp_create, align 1
  %1 = and i8 %0, 1
  %tobool.not = icmp eq i8 %1, 0
  br i1 %tobool.not, label %if.end, label %if.then2

if.then2:                                         ; preds = %if.then
  %m_cinfo = getelementptr inbounds i8, ptr %this, i64 224
  tail call void @jpeg_destroy_decompress(ptr noundef nonnull %m_cinfo)
  br label %if.end

if.end:                                           ; preds = %if.then2, %if.then
  %m_raw.i.i = getelementptr inbounds i8, ptr %this, i64 220
  %m_coeffs.i.i = getelementptr inbounds i8, ptr %this, i64 1256
  store ptr null, ptr %m_coeffs.i.i, align 8
  %jpginput.i.i = getelementptr inbounds i8, ptr %this, i64 1248
  store i32 0, ptr %m_raw.i.i, align 4
  store ptr %this, ptr %jpginput.i.i, align 8
  tail call void @_ZN18OpenImageIO_v2_6_010ImageInput13ioproxy_clearEv(ptr noundef nonnull align 8 dereferenceable(184) %this)
  %m_config.i.i = getelementptr inbounds i8, ptr %this, i64 1288
  %2 = load ptr, ptr %m_config.i.i, align 8
  store ptr null, ptr %m_config.i.i, align 8
  %tobool.not.i.i.i.i = icmp eq ptr %2, null
  br i1 %tobool.not.i.i.i.i, label %if.end4, label %if.then.i.i.i.i

if.then.i.i.i.i:                                  ; preds = %if.end
  tail call void @_ZNKSt14default_deleteIN18OpenImageIO_v2_6_09ImageSpecEEclEPS1_(ptr noundef nonnull align 1 dereferenceable(1) %m_config.i.i, ptr noundef nonnull %2)
  br label %if.end4

if.end4:                                          ; preds = %if.then.i.i.i.i, %if.end, %entry
  %m_raw.i = getelementptr inbounds i8, ptr %this, i64 220
  %m_coeffs.i = getelementptr inbounds i8, ptr %this, i64 1256
  store ptr null, ptr %m_coeffs.i, align 8
  %jpginput.i = getelementptr inbounds i8, ptr %this, i64 1248
  store i32 0, ptr %m_raw.i, align 4
  store ptr %this, ptr %jpginput.i, align 8
  tail call void @_ZN18OpenImageIO_v2_6_010ImageInput13ioproxy_clearEv(ptr noundef nonnull align 8 dereferenceable(184) %this)
  %m_config.i = getelementptr inbounds i8, ptr %this, i64 1288
  %3 = load ptr, ptr %m_config.i, align 8
  store ptr null, ptr %m_config.i, align 8
  %tobool.not.i.i.i = icmp eq ptr %3, null
  br i1 %tobool.not.i.i.i, label %_ZN18OpenImageIO_v2_6_08JpgInput4initEv.exit, label %if.then.i.i.i

if.then.i.i.i:                                    ; preds = %if.end4
  tail call void @_ZNKSt14default_deleteIN18OpenImageIO_v2_6_09ImageSpecEEclEPS1_(ptr noundef nonnull align 1 dereferenceable(1) %m_config.i, ptr noundef nonnull %3)
  br label %_ZN18OpenImageIO_v2_6_08JpgInput4initEv.exit

_ZN18OpenImageIO_v2_6_08JpgInput4initEv.exit:     ; preds = %if.end4, %if.then.i.i.i
  ret i1 true
}